target datalayout = "e-m:e-p270:32:32-p271:32:32-p272:64:64-i64:64-i128:128-f80:128-n8:16:32:64-S128"
target triple = "x86_64-pc-linux-gnu"

%struct.VP8Decoder = type { i32, i32, ptr, %struct.VP8BitReader, i32, %struct.VP8FrameHeader, %struct.VP8PictureHeader, %struct.VP8FilterHeader, %struct.VP8SegmentHeader, %struct.WebPWorker, i32, i32, i32, %struct.VP8ThreadContext, i32, i32, i32, i32, i32, i32, i32, [8 x %struct.VP8BitReader], i32, %struct.VP8Random, [4 x %struct.VP8QuantMatrix], %struct.VP8Proba, i32, i8, ptr, [4 x i8], ptr, ptr, ptr, ptr, ptr, ptr, ptr, i32, i32, ptr, i64, i32, i32, ptr, i32, [4 x [2 x %struct.VP8FInfo]], ptr, ptr, i64, i32, ptr, ptr, ptr, i32 }
%struct.VP8BitReader = type { i64, i32, i32, ptr, ptr, ptr, i32 }
%struct.VP8FrameHeader = type { i8, i8, i8, i32 }
%struct.VP8PictureHeader = type { i16, i16, i8, i8, i8, i8 }
%struct.VP8FilterHeader = type { i32, i32, i32, i32, [4 x i32], [4 x i32] }
%struct.VP8SegmentHeader = type { i32, i32, i32, [4 x i8], [4 x i8] }
%struct.WebPWorker = type { ptr, i32, ptr, ptr, ptr, i32 }
%struct.VP8ThreadContext = type { i32, i32, i32, ptr, ptr, %struct.VP8Io }
%struct.VP8Io = type { i32, i32, i32, i32, i32, ptr, ptr, ptr, i32, i32, ptr, ptr, ptr, ptr, i32, i64, ptr, i32, i32, i32, i32, i32, i32, i32, i32, i32, ptr }
%struct.VP8Random = type { i32, i32, [55 x i32], i32 }
%struct.VP8QuantMatrix = type { [2 x i32], [2 x i32], [2 x i32], i32, i32 }
%struct.VP8Proba = type { [3 x i8], [4 x [8 x %struct.VP8BandProbas]], [4 x [17 x ptr]] }
%struct.VP8BandProbas = type { [3 x [11 x i8]] }
%struct.VP8FInfo = type { i8, i8, i8, i8 }
%struct.WebPWorkerInterface = type { ptr, ptr, ptr, ptr, ptr, ptr }

; Function Attrs: nounwind uwtable
define hidden i32 @VP8ProcessRow(ptr noundef %0, ptr noundef %1) #0 {
  %3 = alloca ptr, align 8
  %4 = alloca ptr, align 8
  %5 = alloca i32, align 4
  %6 = alloca ptr, align 8
  %7 = alloca i32, align 4
  %8 = alloca ptr, align 8
  %9 = alloca ptr, align 8
  %10 = alloca ptr, align 8
  store ptr %0, ptr %3, align 8
  store ptr %1, ptr %4, align 8
  store i32 1, ptr %5, align 4
  %11 = load ptr, ptr %3, align 8
  %12 = getelementptr inbounds %struct.VP8Decoder, ptr %11, i32 0, i32 13
  store ptr %12, ptr %6, align 8
  %13 = load ptr, ptr %3, align 8
  %14 = getelementptr inbounds %struct.VP8Decoder, ptr %13, i32 0, i32 44
  %15 = load i32, ptr %14, align 8
  %16 = icmp sgt i32 %15, 0
  br i1 %16, label %17, label %33

17:                                               ; preds = %2
  %18 = load ptr, ptr %3, align 8
  %19 = getelementptr inbounds %struct.VP8Decoder, ptr %18, i32 0, i32 42
  %20 = load i32, ptr %19, align 4
  %21 = load ptr, ptr %3, align 8
  %22 = getelementptr inbounds %struct.VP8Decoder, ptr %21, i32 0, i32 17
  %23 = load i32, ptr %22, align 4
  %24 = icmp sge i32 %20, %23
  br i1 %24, label %25, label %33

25:                                               ; preds = %17
  %26 = load ptr, ptr %3, align 8
  %27 = getelementptr inbounds %struct.VP8Decoder, ptr %26, i32 0, i32 42
  %28 = load i32, ptr %27, align 4
  %29 = load ptr, ptr %3, align 8
  %30 = getelementptr inbounds %struct.VP8Decoder, ptr %29, i32 0, i32 19
  %31 = load i32, ptr %30, align 4
  %32 = icmp sle i32 %28, %31
  br label %33

33:                                               ; preds = %25, %17, %2
  %34 = phi i1 [ false, %17 ], [ false, %2 ], [ %32, %25 ]
  %35 = zext i1 %34 to i32
  store i32 %35, ptr %7, align 4
  %36 = load ptr, ptr %3, align 8
  %37 = getelementptr inbounds %struct.VP8Decoder, ptr %36, i32 0, i32 10
  %38 = load i32, ptr %37, align 8
  %39 = icmp eq i32 %38, 0
  br i1 %39, label %40, label %54

40:                                               ; preds = %33
  %41 = load ptr, ptr %3, align 8
  %42 = getelementptr inbounds %struct.VP8Decoder, ptr %41, i32 0, i32 42
  %43 = load i32, ptr %42, align 4
  %44 = load ptr, ptr %6, align 8
  %45 = getelementptr inbounds %struct.VP8ThreadContext, ptr %44, i32 0, i32 1
  store i32 %43, ptr %45, align 4
  %46 = load i32, ptr %7, align 4
  %47 = load ptr, ptr %6, align 8
  %48 = getelementptr inbounds %struct.VP8ThreadContext, ptr %47, i32 0, i32 2
  store i32 %46, ptr %48, align 8
  %49 = load ptr, ptr %3, align 8
  %50 = load ptr, ptr %6, align 8
  call void @ReconstructRow(ptr noundef %49, ptr noundef %50)
  %51 = load ptr, ptr %3, align 8
  %52 = load ptr, ptr %4, align 8
  %53 = call i32 @FinishRow(ptr noundef %51, ptr noundef %52)
  store i32 %53, ptr %5, align 4
  br label %135

54:                                               ; preds = %33
  %55 = load ptr, ptr %3, align 8
  %56 = getelementptr inbounds %struct.VP8Decoder, ptr %55, i32 0, i32 9
  store ptr %56, ptr %8, align 8
  %57 = call ptr @WebPGetWorkerInterface()
  %58 = getelementptr inbounds %struct.WebPWorkerInterface, ptr %57, i32 0, i32 2
  %59 = load ptr, ptr %58, align 8
  %60 = load ptr, ptr %8, align 8
  %61 = call i32 %59(ptr noundef %60)
  %62 = load i32, ptr %5, align 4
  %63 = and i32 %62, %61
  store i32 %63, ptr %5, align 4
  %64 = load i32, ptr %5, align 4
  %65 = icmp ne i32 %64, 0
  br i1 %65, label %66, label %134

66:                                               ; preds = %54
  %67 = load ptr, ptr %6, align 8
  %68 = getelementptr inbounds %struct.VP8ThreadContext, ptr %67, i32 0, i32 5
  %69 = load ptr, ptr %4, align 8
  call void @llvm.memcpy.p0.p0.i64(ptr align 8 %68, ptr align 8 %69, i64 160, i1 false)
  %70 = load ptr, ptr %3, align 8
  %71 = getelementptr inbounds %struct.VP8Decoder, ptr %70, i32 0, i32 11
  %72 = load i32, ptr %71, align 4
  %73 = load ptr, ptr %6, align 8
  %74 = getelementptr inbounds %struct.VP8ThreadContext, ptr %73, i32 0, i32 0
  store i32 %72, ptr %74, align 8
  %75 = load ptr, ptr %3, align 8
  %76 = getelementptr inbounds %struct.VP8Decoder, ptr %75, i32 0, i32 42
  %77 = load i32, ptr %76, align 4
  %78 = load ptr, ptr %6, align 8
  %79 = getelementptr inbounds %struct.VP8ThreadContext, ptr %78, i32 0, i32 1
  store i32 %77, ptr %79, align 4
  %80 = load i32, ptr %7, align 4
  %81 = load ptr, ptr %6, align 8
  %82 = getelementptr inbounds %struct.VP8ThreadContext, ptr %81, i32 0, i32 2
  store i32 %80, ptr %82, align 8
  %83 = load ptr, ptr %3, align 8
  %84 = getelementptr inbounds %struct.VP8Decoder, ptr %83, i32 0, i32 10
  %85 = load i32, ptr %84, align 8
  %86 = icmp eq i32 %85, 2
  br i1 %86, label %87, label %99

87:                                               ; preds = %66
  %88 = load ptr, ptr %6, align 8
  %89 = getelementptr inbounds %struct.VP8ThreadContext, ptr %88, i32 0, i32 4
  %90 = load ptr, ptr %89, align 8
  store ptr %90, ptr %9, align 8
  %91 = load ptr, ptr %3, align 8
  %92 = getelementptr inbounds %struct.VP8Decoder, ptr %91, i32 0, i32 43
  %93 = load ptr, ptr %92, align 8
  %94 = load ptr, ptr %6, align 8
  %95 = getelementptr inbounds %struct.VP8ThreadContext, ptr %94, i32 0, i32 4
  store ptr %93, ptr %95, align 8
  %96 = load ptr, ptr %9, align 8
  %97 = load ptr, ptr %3, align 8
  %98 = getelementptr inbounds %struct.VP8Decoder, ptr %97, i32 0, i32 43
  store ptr %96, ptr %98, align 8
  br label %102

99:                                               ; preds = %66
  %100 = load ptr, ptr %3, align 8
  %101 = load ptr, ptr %6, align 8
  call void @ReconstructRow(ptr noundef %100, ptr noundef %101)
  br label %102

102:                                              ; preds = %99, %87
  %103 = load i32, ptr %7, align 4
  %104 = icmp ne i32 %103, 0
  br i1 %104, label %105, label %117

105:                                              ; preds = %102
  %106 = load ptr, ptr %6, align 8
  %107 = getelementptr inbounds %struct.VP8ThreadContext, ptr %106, i32 0, i32 3
  %108 = load ptr, ptr %107, align 8
  store ptr %108, ptr %10, align 8
  %109 = load ptr, ptr %3, align 8
  %110 = getelementptr inbounds %struct.VP8Decoder, ptr %109, i32 0, i32 32
  %111 = load ptr, ptr %110, align 8
  %112 = load ptr, ptr %6, align 8
  %113 = getelementptr inbounds %struct.VP8ThreadContext, ptr %112, i32 0, i32 3
  store ptr %111, ptr %113, align 8
  %114 = load ptr, ptr %10, align 8
  %115 = load ptr, ptr %3, align 8
  %116 = getelementptr inbounds %struct.VP8Decoder, ptr %115, i32 0, i32 32
  store ptr %114, ptr %116, align 8
  br label %117

117:                                              ; preds = %105, %102
  %118 = call ptr @WebPGetWorkerInterface()
  %119 = getelementptr inbounds %struct.WebPWorkerInterface, ptr %118, i32 0, i32 3
  %120 = load ptr, ptr %119, align 8
  %121 = load ptr, ptr %8, align 8
  call void %120(ptr noundef %121)
  %122 = load ptr, ptr %3, align 8
  %123 = getelementptr inbounds %struct.VP8Decoder, ptr %122, i32 0, i32 11
  %124 = load i32, ptr %123, align 4
  %125 = add nsw i32 %124, 1
  store i32 %125, ptr %123, align 4
  %126 = load ptr, ptr %3, align 8
  %127 = getelementptr inbounds %struct.VP8Decoder, ptr %126, i32 0, i32 12
  %128 = load i32, ptr %127, align 8
  %129 = icmp eq i32 %125, %128
  br i1 %129, label %130, label %133

130:                                              ; preds = %117
  %131 = load ptr, ptr %3, align 8
  %132 = getelementptr inbounds %struct.VP8Decoder, ptr %131, i32 0, i32 11
  store i32 0, ptr %132, align 4
  br label %133

133:                                              ; preds = %130, %117
  br label %134

134:                                              ; preds = %133, %54
  br label %135

135:                                              ; preds = %134, %40
  %136 = load i32, ptr %5, align 4
  ret i32 %136
}