; Function Attrs: nounwind uwtable
define hidden i32 @VP8ProcessRow(ptr noundef %0, ptr noundef %1) local_unnamed_addr #0 {
  %3 = getelementptr inbounds i8, ptr %0, i64 216
  %4 = getelementptr inbounds i8, ptr %0, i64 2920
  %5 = load i32, ptr %4, align 8
  %6 = icmp sgt i32 %5, 0
  br i1 %6, label %7, label %16

7:                                                ; preds = %2
  %8 = getelementptr inbounds i8, ptr %0, i64 2908
  %9 = load i32, ptr %8, align 4
  %10 = getelementptr inbounds i8, ptr %0, i64 420
  %11 = load i32, ptr %10, align 4
  %.not = icmp slt i32 %9, %11
  br i1 %.not, label %16, label %12

12:                                               ; preds = %7
  %13 = getelementptr inbounds i8, ptr %0, i64 428
  %14 = load i32, ptr %13, align 4
  %15 = icmp sle i32 %9, %14
  br label %16

16:                                               ; preds = %12, %7, %2
  %17 = phi i1 [ false, %7 ], [ false, %2 ], [ %15, %12 ]
  %18 = zext i1 %17 to i32
  %19 = getelementptr inbounds i8, ptr %0, i64 200
  %20 = load i32, ptr %19, align 8
  %21 = icmp eq i32 %20, 0
  br i1 %21, label %22, label %28

22:                                               ; preds = %16
  %23 = getelementptr inbounds i8, ptr %0, i64 2908
  %24 = load i32, ptr %23, align 4
  %25 = getelementptr inbounds i8, ptr %0, i64 220
  store i32 %24, ptr %25, align 4
  %26 = getelementptr inbounds i8, ptr %0, i64 224
  store i32 %18, ptr %26, align 8
  tail call fastcc void @ReconstructRow(ptr noundef nonnull %0, ptr noundef nonnull %3)
  %27 = tail call i32 @FinishRow(ptr noundef nonnull %0, ptr noundef %1)
  br label %66

28:                                               ; preds = %16
  %29 = getelementptr inbounds i8, ptr %0, i64 152
  %30 = tail call ptr @WebPGetWorkerInterface() #7
  %31 = getelementptr inbounds i8, ptr %30, i64 16
  %32 = load ptr, ptr %31, align 8
  %33 = tail call i32 %32(ptr noundef nonnull %29) #7
  %34 = and i32 %33, 1
  %.not47 = icmp eq i32 %34, 0
  br i1 %.not47, label %66, label %35

35:                                               ; preds = %28
  %36 = getelementptr inbounds i8, ptr %0, i64 248
  tail call void @llvm.memcpy.p0.p0.i64(ptr noundef nonnull align 8 dereferenceable(160) %36, ptr noundef nonnull align 8 dereferenceable(160) %1, i64 160, i1 false)
  %37 = getelementptr inbounds i8, ptr %0, i64 204
  %38 = load i32, ptr %37, align 4
  store i32 %38, ptr %3, align 8
  %39 = getelementptr inbounds i8, ptr %0, i64 2908
  %40 = load i32, ptr %39, align 4
  %41 = getelementptr inbounds i8, ptr %0, i64 220
  store i32 %40, ptr %41, align 4
  %42 = getelementptr inbounds i8, ptr %0, i64 224
  store i32 %18, ptr %42, align 8
  %43 = load i32, ptr %19, align 8
  %44 = icmp eq i32 %43, 2
  br i1 %44, label %45, label %50

45:                                               ; preds = %35
  %46 = getelementptr inbounds i8, ptr %0, i64 240
  %47 = load ptr, ptr %46, align 8
  %48 = getelementptr inbounds i8, ptr %0, i64 2912
  %49 = load ptr, ptr %48, align 8
  store ptr %49, ptr %46, align 8
  store ptr %47, ptr %48, align 8
  br label %51

50:                                               ; preds = %35
  tail call fastcc void @ReconstructRow(ptr noundef nonnull %0, ptr noundef nonnull %3)
  br label %51

51:                                               ; preds = %50, %45
  br i1 %17, label %52, label %57

52:                                               ; preds = %51
  %53 = getelementptr inbounds i8, ptr %0, i64 232
  %54 = load ptr, ptr %53, align 8
  %55 = getelementptr inbounds i8, ptr %0, i64 2840
  %56 = load ptr, ptr %55, align 8
  store ptr %56, ptr %53, align 8
  store ptr %54, ptr %55, align 8
  br label %57

57:                                               ; preds = %52, %51
  %58 = tail call ptr @WebPGetWorkerInterface() #7
  %59 = getelementptr inbounds i8, ptr %58, i64 24
  %60 = load ptr, ptr %59, align 8
  tail call void %60(ptr noundef nonnull %29) #7
  %61 = load i32, ptr %37, align 4
  %62 = add nsw i32 %61, 1
  %63 = getelementptr inbounds i8, ptr %0, i64 208
  %64 = load i32, ptr %63, align 8
  %65 = icmp eq i32 %62, %64
  %spec.store.select = select i1 %65, i32 0, i32 %62
  store i32 %spec.store.select, ptr %37, align 4
  br label %66

66:                                               ; preds = %57, %28, %22
  %.0 = phi i32 [ %27, %22 ], [ 0, %28 ], [ 1, %57 ]
  ret i32 %.0
}